target datalayout = "e-m:e-p270:32:32-p271:32:32-p272:64:64-i64:64-i128:128-f80:128-n8:16:32:64-S128"
target triple = "x86_64-pc-linux-gnu"

%"class.std::__cxx11::basic_string" = type { %"struct.std::__cxx11::basic_string<char>::_Alloc_hider", i64, %union.anon }
%"struct.std::__cxx11::basic_string<char>::_Alloc_hider" = type { ptr }
%union.anon = type { i64, [8 x i8] }
%class.cmGlobVerificationManager = type { %"class.std::map", %"class.std::__cxx11::basic_string", %"class.std::__cxx11::basic_string" }
%"class.std::map" = type { %"class.std::_Rb_tree" }
%"class.std::_Rb_tree" = type { %"struct.std::_Rb_tree<cmGlobVerificationManager::CacheEntryKey, std::pair<const cmGlobVerificationManager::CacheEntryKey, cmGlobVerificationManager::CacheEntryValue>, std::_Select1st<std::pair<const cmGlobVerificationManager::CacheEntryKey, cmGlobVerificationManager::CacheEntryValue>>, std::less<cmGlobVerificationManager::CacheEntryKey>>::_Rb_tree_impl" }
%"struct.std::_Rb_tree<cmGlobVerificationManager::CacheEntryKey, std::pair<const cmGlobVerificationManager::CacheEntryKey, cmGlobVerificationManager::CacheEntryValue>, std::_Select1st<std::pair<const cmGlobVerificationManager::CacheEntryKey, cmGlobVerificationManager::CacheEntryValue>>, std::less<cmGlobVerificationManager::CacheEntryKey>>::_Rb_tree_impl" = type { %"struct.std::_Rb_tree_key_compare", %"struct.std::_Rb_tree_header" }
%"struct.std::_Rb_tree_key_compare" = type { %"struct.std::less" }
%"struct.std::less" = type { i8 }
%"struct.std::_Rb_tree_header" = type { %"struct.std::_Rb_tree_node_base", i64 }
%"struct.std::_Rb_tree_node_base" = type { i32, ptr, ptr, ptr }

; Function Attrs: mustprogress nounwind uwtable
define dso_local noundef zeroext i1 @_ZNK25cmGlobVerificationManager19DoWriteVerifyTargetEv(ptr noundef nonnull align 8 dereferenceable(112) %0) #5 align 2 {
  %2 = alloca ptr, align 8
  store ptr %0, ptr %2, align 8
  %3 = load ptr, ptr %2, align 8
  %4 = getelementptr inbounds %class.cmGlobVerificationManager, ptr %3, i32 0, i32 1
  %5 = call noundef zeroext i1 @_ZNKSt7__cxx1112basic_stringIcSt11char_traitsIcESaIcEE5emptyEv(ptr noundef nonnull align 8 dereferenceable(32) %4) #3
  br i1 %5, label %10, label %6

6:                                                ; preds = %1
  %7 = getelementptr inbounds %class.cmGlobVerificationManager, ptr %3, i32 0, i32 2
  %8 = call noundef zeroext i1 @_ZNKSt7__cxx1112basic_stringIcSt11char_traitsIcESaIcEE5emptyEv(ptr noundef nonnull align 8 dereferenceable(32) %7) #3
  %9 = xor i1 %8, true
  br label %10

10:                                               ; preds = %6, %1
  %11 = phi i1 [ false, %1 ], [ %9, %6 ]
  ret i1 %11
}